target datalayout = "e-m:e-p270:32:32-p271:32:32-p272:64:64-i64:64-i128:128-f80:128-n8:16:32:64-S128"
target triple = "x86_64-pc-linux-gnu"

%struct.AVBitStreamFilter = type { ptr, ptr, ptr }
%struct.AVBSFContext = type { ptr, ptr, ptr, ptr, ptr, %struct.AVRational, %struct.AVRational }
%struct.AVRational = type { i32, i32 }
%struct.BSFListContext = type { ptr, ptr, i32, i32, ptr }
%struct.AVBPrint = type { ptr, i32, i32, i32, [1 x i8], [1000 x i8] }

@bsf_list_item_name.null_filter_name = internal global ptr @.str.13, align 8
@.str.14 = private unnamed_addr constant [10 x i8] c"bsf_list(\00", align 1
@.str.15 = private unnamed_addr constant [4 x i8] c",%s\00", align 1
@.str.16 = private unnamed_addr constant [3 x i8] c"%s\00", align 1
@.str.17 = private unnamed_addr constant [2 x i8] c")\00", align 1

; Function Attrs: nounwind uwtable
define internal ptr @bsf_list_item_name(ptr noundef %0) #0 {
  %2 = alloca ptr, align 8
  %3 = alloca ptr, align 8
  %4 = alloca ptr, align 8
  %5 = alloca ptr, align 8
  %6 = alloca i32, align 4
  %7 = alloca i32, align 4
  %8 = alloca %struct.AVBPrint, align 8
  store ptr %0, ptr %3, align 8, !tbaa !88
  call void @llvm.lifetime.start.p0(i64 8, ptr %4) #6
  %9 = load ptr, ptr %3, align 8, !tbaa !88
  store ptr %9, ptr %4, align 8, !tbaa !10
  call void @llvm.lifetime.start.p0(i64 8, ptr %5) #6
  %10 = load ptr, ptr %4, align 8, !tbaa !10
  %11 = getelementptr inbounds nuw %struct.AVBSFContext, ptr %10, i32 0, i32 2
  %12 = load ptr, ptr %11, align 8, !tbaa !14
  store ptr %12, ptr %5, align 8, !tbaa !81
  %13 = load ptr, ptr %5, align 8, !tbaa !81
  %14 = getelementptr inbounds nuw %struct.BSFListContext, ptr %13, i32 0, i32 2
  %15 = load i32, ptr %14, align 8, !tbaa !85
  %16 = icmp ne i32 %15, 0
  br i1 %16, label %19, label %17

17:                                               ; preds = %1
  %18 = load ptr, ptr @bsf_list_item_name.null_filter_name, align 8, !tbaa !73
  store ptr %18, ptr %2, align 8
  store i32 1, ptr %6, align 4
  br label %57

19:                                               ; preds = %1
  %20 = load ptr, ptr %5, align 8, !tbaa !81
  %21 = getelementptr inbounds nuw %struct.BSFListContext, ptr %20, i32 0, i32 4
  %22 = load ptr, ptr %21, align 8, !tbaa !94
  %23 = icmp ne ptr %22, null
  br i1 %23, label %53, label %24

24:                                               ; preds = %19
  call void @llvm.lifetime.start.p0(i64 4, ptr %7) #6
  call void @llvm.lifetime.start.p0(i64 1024, ptr %8) #6
  call void @av_bprint_init(ptr noundef %8, i32 noundef 16, i32 noundef 128)
  call void (ptr, ptr, ...) @av_bprintf(ptr noundef %8, ptr noundef @.str.14)
  store i32 0, ptr %7, align 4, !tbaa !31
  br label %25

25:                                               ; preds = %46, %24
  %26 = load i32, ptr %7, align 4, !tbaa !31
  %27 = load ptr, ptr %5, align 8, !tbaa !81
  %28 = getelementptr inbounds nuw %struct.BSFListContext, ptr %27, i32 0, i32 2
  %29 = load i32, ptr %28, align 8, !tbaa !85
  %30 = icmp slt i32 %26, %29
  br i1 %30, label %31, label %49

31:                                               ; preds = %25
  %32 = load i32, ptr %7, align 4, !tbaa !31
  %33 = icmp ne i32 %32, 0
  %34 = select i1 %33, ptr @.str.15, ptr @.str.16
  %35 = load ptr, ptr %5, align 8, !tbaa !81
  %36 = getelementptr inbounds nuw %struct.BSFListContext, ptr %35, i32 0, i32 1
  %37 = load ptr, ptr %36, align 8, !tbaa !83
  %38 = load i32, ptr %7, align 4, !tbaa !31
  %39 = sext i32 %38 to i64
  %40 = getelementptr inbounds ptr, ptr %37, i64 %39
  %41 = load ptr, ptr %40, align 8, !tbaa !10
  %42 = getelementptr inbounds nuw %struct.AVBSFContext, ptr %41, i32 0, i32 1
  %43 = load ptr, ptr %42, align 8, !tbaa !21
  %44 = getelementptr inbounds nuw %struct.AVBitStreamFilter, ptr %43, i32 0, i32 0
  %45 = load ptr, ptr %44, align 8, !tbaa !51
  call void (ptr, ptr, ...) @av_bprintf(ptr noundef %8, ptr noundef %34, ptr noundef %45)
  br label %46

46:                                               ; preds = %31
  %47 = load i32, ptr %7, align 4, !tbaa !31
  %48 = add nsw i32 %47, 1
  store i32 %48, ptr %7, align 4, !tbaa !31
  br label %25, !llvm.loop !95

49:                                               ; preds = %25
  call void (ptr, ptr, ...) @av_bprintf(ptr noundef %8, ptr noundef @.str.17)
  %50 = load ptr, ptr %5, align 8, !tbaa !81
  %51 = getelementptr inbounds nuw %struct.BSFListContext, ptr %50, i32 0, i32 4
  %52 = call i32 @av_bprint_finalize(ptr noundef %8, ptr noundef %51)
  call void @llvm.lifetime.end.p0(i64 1024, ptr %8) #6
  call void @llvm.lifetime.end.p0(i64 4, ptr %7) #6
  br label %53

53:                                               ; preds = %49, %19
  %54 = load ptr, ptr %5, align 8, !tbaa !81
  %55 = getelementptr inbounds nuw %struct.BSFListContext, ptr %54, i32 0, i32 4
  %56 = load ptr, ptr %55, align 8, !tbaa !94
  store ptr %56, ptr %2, align 8
  store i32 1, ptr %6, align 4
  br label %57

57:                                               ; preds = %53, %17
  call void @llvm.lifetime.end.p0(i64 8, ptr %5) #6
  call void @llvm.lifetime.end.p0(i64 8, ptr %4) #6
  %58 = load ptr, ptr %2, align 8
  ret ptr %58
}