; Function Attrs: nounwind uwtable
define internal ptr @bsf_list_item_name(ptr noundef readonly captures(none) %0) #0 {
  %2 = alloca %struct.AVBPrint, align 8
  %3 = getelementptr inbounds nuw i8, ptr %0, i64 16
  %4 = load ptr, ptr %3, align 8, !tbaa !9
  %5 = getelementptr inbounds nuw i8, ptr %4, i64 16
  %6 = load i32, ptr %5, align 8, !tbaa !64
  %.not = icmp eq i32 %6, 0
  br i1 %.not, label %26, label %7

7:                                                ; preds = %1
  %8 = getelementptr inbounds nuw i8, ptr %4, i64 24
  %9 = load ptr, ptr %8, align 8, !tbaa !76
  %.not13 = icmp eq ptr %9, null
  br i1 %.not13, label %10, label %26

10:                                               ; preds = %7
  call void @llvm.lifetime.start.p0(i64 1024, ptr nonnull %2) #6
  call void @av_bprint_init(ptr noundef nonnull %2, i32 noundef 16, i32 noundef 128) #6
  call void (ptr, ptr, ...) @av_bprintf(ptr noundef nonnull %2, ptr noundef nonnull @.str.14) #6
  %11 = load i32, ptr %5, align 8, !tbaa !64
  %12 = icmp sgt i32 %11, 0
  br i1 %12, label %.lr.ph, label %._crit_edge

.lr.ph:                                           ; preds = %10
  %13 = getelementptr inbounds nuw i8, ptr %4, i64 8
  br label %14

14:                                               ; preds = %.lr.ph, %14
  %indvars.iv = phi i64 [ 0, %.lr.ph ], [ %indvars.iv.next, %14 ]
  %.not14 = icmp eq i64 %indvars.iv, 0
  %15 = select i1 %.not14, ptr @.str.16, ptr @.str.15
  %16 = load ptr, ptr %13, align 8, !tbaa !62
  %17 = getelementptr inbounds nuw ptr, ptr %16, i64 %indvars.iv
  %18 = load ptr, ptr %17, align 8, !tbaa !4
  %19 = getelementptr inbounds nuw i8, ptr %18, i64 8
  %20 = load ptr, ptr %19, align 8, !tbaa !16
  %21 = load ptr, ptr %20, align 8, !tbaa !44
  call void (ptr, ptr, ...) @av_bprintf(ptr noundef nonnull %2, ptr noundef nonnull %15, ptr noundef %21) #6
  %indvars.iv.next = add nuw nsw i64 %indvars.iv, 1
  %22 = load i32, ptr %5, align 8, !tbaa !64
  %23 = sext i32 %22 to i64
  %24 = icmp slt i64 %indvars.iv.next, %23
  br i1 %24, label %14, label %._crit_edge, !llvm.loop !77

._crit_edge:                                      ; preds = %14, %10
  call void (ptr, ptr, ...) @av_bprintf(ptr noundef nonnull %2, ptr noundef nonnull @.str.17) #6
  %25 = call i32 @av_bprint_finalize(ptr noundef nonnull %2, ptr noundef nonnull %8) #6
  call void @llvm.lifetime.end.p0(i64 1024, ptr nonnull %2) #6
  %.pre = load ptr, ptr %8, align 8, !tbaa !76
  br label %26

26:                                               ; preds = %7, %._crit_edge, %1
  %.012 = phi ptr [ @.str.13, %1 ], [ %.pre, %._crit_edge ], [ %9, %7 ]
  ret ptr %.012
}